; Function Attrs: nounwind uwtable
define hidden noalias ptr @mi_heap_zalloc_aligned(ptr noundef %0, i64 noundef %1, i64 noundef %2) local_unnamed_addr #0 {
  %4 = icmp eq i64 %2, 0
  br i1 %4, label %mi_heap_zalloc_aligned_at.exit, label %5, !prof !3

5:                                                ; preds = %3
  %6 = tail call range(i64 1, 65) i64 @llvm.ctpop.i64(i64 %2)
  %7 = icmp samesign ugt i64 %6, 1
  %8 = icmp ugt i64 %2, 1048576
  %or.cond.i.i = or i1 %8, %7
  %9 = icmp slt i64 %1, 0
  %or.cond34.i.i = or i1 %9, %or.cond.i.i
  br i1 %or.cond34.i.i, label %mi_heap_zalloc_aligned_at.exit, label %10, !prof !4

10:                                               ; preds = %5
  %11 = icmp samesign ult i64 %1, 1025
  br i1 %11, label %12, label %27, !prof !5

12:                                               ; preds = %10
  %13 = add nsw i64 %2, -1
  %14 = add nuw nsw i64 %1, 7
  %15 = lshr i64 %14, 3
  %16 = getelementptr inbounds nuw i8, ptr %0, i64 8
  %17 = getelementptr inbounds nuw [129 x ptr], ptr %16, i64 0, i64 %15
  %18 = load ptr, ptr %17, align 8, !tbaa !6
  %19 = getelementptr inbounds nuw i8, ptr %18, i64 16
  %20 = load ptr, ptr %19, align 8, !tbaa !11
  %21 = ptrtoint ptr %20 to i64
  %22 = and i64 %13, %21
  %23 = icmp ne i64 %22, 0
  %24 = icmp eq ptr %20, null
  %.not33.i.i = select i1 %24, i1 true, i1 %23
  br i1 %.not33.i.i, label %27, label %25, !prof !3

25:                                               ; preds = %12
  %26 = tail call ptr @_mi_page_malloc(ptr noundef nonnull %0, ptr noundef nonnull %18, i64 noundef %1) #8
  tail call void @_mi_block_zero_init(ptr noundef nonnull %18, ptr noundef %26, i64 noundef %1) #8
  br label %mi_heap_zalloc_aligned_at.exit

27:                                               ; preds = %12, %10
  %28 = tail call fastcc ptr @mi_heap_malloc_zero_aligned_at_fallback(ptr noundef %0, i64 noundef %1, i64 noundef %2, i64 noundef 0, i1 noundef zeroext true)
  br label %mi_heap_zalloc_aligned_at.exit

mi_heap_zalloc_aligned_at.exit:                   ; preds = %3, %5, %25, %27
  %.028.i.i = phi ptr [ null, %5 ], [ %28, %27 ], [ null, %3 ], [ %26, %25 ]
  ret ptr %.028.i.i
}